Certificate:
    Data:
        Version: 3 (0x2)
        Serial Number: 2 (0x2)
        Signature Algorithm: sha1WithRSAEncryption
        Issuer: C=cn, ST=anhui, O=banggoo, OU=devel, CN=hostl1ca/emailAddress=jzpeng@banggoo.cn
        Validity
            Not Before: Aug 14 23:25:42 2013 GMT
            Not After : Oct 31 23:25:42 2021 GMT
        Subject: C=cn, ST=anhui, O=banggoo, OU=devel, CN=hostl2ca/emailAddress=jzpeng@banggoo.cn
        Subject Public Key Info:
            Public Key Algorithm: rsaEncryption
            RSA Public Key: (2048 bit)
                Modulus (2048 bit):
                    00:be:e3:3b:a4:2f:02:11:4d:9e:9c:dc:3c:d4:8c:
                    29:80:ee:33:46:b3:f3:bc:d3:2b:4a:0d:3e:3c:ca:
                    b6:84:f8:1a:80:92:11:f9:02:2e:07:ad:c3:0e:d8:
                    0c:da:96:d0:d8:71:da:63:95:fd:cd:3d:d7:16:75:
                    77:b0:2c:bf:fc:6d:03:27:d9:cb:a6:3a:70:41:25:
                    bb:ae:f3:aa:8b:fa:01:13:b8:d8:57:b8:a6:87:ea:
                    e8:32:b2:3f:fa:0e:d6:48:79:77:06:7f:c4:a1:54:
                    71:21:9f:ae:0d:ca:47:bf:ee:92:32:1c:5f:3d:03:
                    81:3f:7a:7d:a2:bb:68:4b:7a:18:8b:07:1e:f3:1a:
                    17:e5:45:d4:02:a2:84:b5:06:97:bc:60:58:e5:9d:
                    04:b1:58:86:3a:c4:83:ce:d5:a7:7e:6e:5b:5c:79:
                    2b:fd:ed:94:22:91:78:34:44:3b:84:43:f9:b2:18:
                    5e:5c:78:bc:0d:ca:13:33:b6:ee:cd:cd:09:8a:d0:
                    57:4c:da:a0:3c:7a:48:ad:66:ab:e2:34:ca:e6:37:
                    36:e3:68:5e:35:31:be:1c:4b:30:32:43:99:39:95:
                    19:d5:98:f5:21:4b:c0:95:51:98:be:0c:d3:d8:92:
                    30:38:3c:b1:36:25:16:7d:39:b0:a6:97:8d:f8:1e:
                    8f:8d
                Exponent: 65537 (0x10001)
        X509v3 extensions:
            X509v3 Subject Key Identifier: 
                50:FE:6F:EA:33:78:A0:C2:76:74:4B:6B:CD:A0:80:DE:F4:4A:84:71
            X509v3 Authority Key Identifier: 
                keyid:02:EC:BF:FC:72:38:D0:ED:3D:9D:8C:E3:64:87:CF:09:97:F2:68:D9
                DirName:/C=cn/ST=anhui/L=hefei/O=banggoo/OU=devel/CN=hostrootca/emailAddress=jzpeng@banggoo.cn
                serial:01

            X509v3 Basic Constraints: 
                CA:TRUE
    Signature Algorithm: sha1WithRSAEncryption
        64:21:85:b6:a3:b6:58:e8:11:b7:89:e7:62:d0:d9:11:02:76:
        41:e3:0d:f2:71:57:6e:cb:1c:3e:bb:dc:1c:5b:e5:1d:87:6e:
        88:ff:c9:2f:06:27:13:0b:3b:04:97:0f:c7:65:fb:4b:8f:ac:
        aa:87:e6:dd:f9:3f:01:de:09:a0:6c:28:99:fd:1d:ce:d4:38:
        71:9e:37:3f:cf:92:fd:d5:fa:4a:93:76:64:20:68:38:b1:62:
        16:eb:03:09:e4:76:ff:91:bc:10:81:5d:93:e2:fd:f1:8d:0c:
        64:94:64:c4:b1:44:50:26:56:3c:dd:a7:dd:1b:c1:61:71:8d:
        2f:cf:36:e3:8e:3c:02:c3:46:11:6a:c1:b9:4e:c6:ce:8f:91:
        56:78:7b:c6:d4:4c:90:2e:45:9b:be:71:7a:3e:4d:43:86:ac:
        a5:f7:15:62:86:f0:62:d7:87:05:2a:5e:c4:37:fa:90:bb:f4:
        8b:95:45:80:db:3b:96:99:bd:96:bf:bd:f4:4e:be:ea:89:dc:
        1e:66:30:43:dc:bd:cf:74:20:31:ce:d2:cb:2b:3c:13:d2:39:
        e2:d8:8c:99:e7:82:12:f2:81:3b:62:6b:fc:93:82:84:06:c7:
        ee:c2:59:71:c8:c9:11:2b:60:99:1f:0f:65:60:a8:57:b6:02:
        38:26:28:a7
-----BEGIN CERTIFICATE-----
MIIESjCCAzKgAwIBAgIBAjANBgkqhkiG9w0BAQUFADB0MQswCQYDVQQGEwJjbjEO
MAwGA1UECBMFYW5odWkxEDAOBgNVBAoTB2Jhbmdnb28xDjAMBgNVBAsTBWRldmVs
MREwDwYDVQQDEwhob3N0bDFjYTEgMB4GCSqGSIb3DQEJARYRanpwZW5nQGJhbmdn
b28uY24wHhcNMTMwODE0MjMyNTQyWhcNMjExMDMxMjMyNTQyWjB0MQswCQYDVQQG
EwJjbjEOMAwGA1UECBMFYW5odWkxEDAOBgNVBAoTB2Jhbmdnb28xDjAMBgNVBAsT
BWRldmVsMREwDwYDVQQDEwhob3N0bDJjYTEgMB4GCSqGSIb3DQEJARYRanpwZW5n
QGJhbmdnb28uY24wggEiMA0GCSqGSIb3DQEBAQUAA4IBDwAwggEKAoIBAQC+4zuk
LwIRTZ6c3DzUjCmA7jNGs/O80ytKDT48yraE+BqAkhH5Ai4HrcMO2AzaltDYcdpj
lf3NPdcWdXewLL/8bQMn2cumOnBBJbuu86qL+gETuNhXuKaH6ugysj/6DtZIeXcG
f8ShVHEhn64Nyke/7pIyHF89A4E/en2iu2hLehiLBx7zGhflRdQCooS1Bpe8YFjl
nQSxWIY6xIPO1ad+bltceSv97ZQikXg0RDuEQ/myGF5ceLwNyhMztu7NzQmK0FdM
2qA8ekitZqviNMrmNzbjaF41Mb4cSzAyQ5k5lRnVmPUhS8CVUZi+DNPYkjA4PLE2
JRZ9ObCml434Ho+NAgMBAAGjgeYwgeMwHQYDVR0OBBYEFFD+b+ozeKDCdnRLa82g
gN70SoRxMIGzBgNVHSMEgaswgaiAFALsv/xyONDtPZ2M42SHzwmX8mjZoYGMpIGJ
MIGGMQswCQYDVQQGEwJjbjEOMAwGA1UECBMFYW5odWkxDjAMBgNVBAcTBWhlZmVp
MRAwDgYDVQQKEwdiYW5nZ29vMQ4wDAYDVQQLEwVkZXZlbDETMBEGA1UEAxMKaG9z
dHJvb3RjYTEgMB4GCSqGSIb3DQEJARYRanpwZW5nQGJhbmdnb28uY26CAQEwDAYD
VR0TBAUwAwEB/zANBgkqhkiG9w0BAQUFAAOCAQEAZCGFtqO2WOgRt4nnYtDZEQJ2
QeMN8nFXbsscPrvcHFvlHYduiP/JLwYnEws7BJcPx2X7S4+sqofm3fk/Ad4JoGwo
mf0dztQ4cZ43P8+S/dX6SpN2ZCBoOLFiFusDCeR2/5G8EIFdk+L98Y0MZJRkxLFE
UCZWPN2n3RvBYXGNL8824448AsNGEWrBuU7Gzo+RVnh7xtRMkC5Fm75xej5NQ4as
pfcVYobwYteHBSpexDf6kLv0i5VFgNs7lpm9lr+99E6+6oncHmYwQ9y9z3QgMc7S
yys8E9I54tiMmeeCEvKBO2Jr/JOChAbH7sJZccjJEStgmR8PZWCoV7YCOCYopw==
-----END CERTIFICATE-----
