Certificate:
    Data:
        Version: 3 (0x2)
        Serial Number: 4 (0x4)
        Signature Algorithm: sha1WithRSAEncryption
        Issuer: C=cn, ST=anhui, O=banggoo, OU=devel, CN=hostl2ca/emailAddress=jzpeng@banggoo.cn
        Validity
            Not Before: Aug 14 23:29:24 2013 GMT
            Not After : Oct 31 23:29:24 2021 GMT
        Subject: C=cn, ST=anhui, O=banggoo, OU=devel, CN=hostcase2/emailAddress=jzpeng@banggoo.cn
        Subject Public Key Info:
            Public Key Algorithm: rsaEncryption
            RSA Public Key: (2048 bit)
                Modulus (2048 bit):
                    00:e5:8b:e2:ac:03:17:09:a4:84:15:c1:c9:83:fd:
                    66:bf:08:26:2c:9c:b3:dd:40:94:89:a9:2d:87:db:
                    13:08:bd:ba:f4:83:d4:fe:b2:f1:28:6d:b8:e8:9d:
                    0f:92:b6:3b:7e:cd:e6:15:c1:e2:5f:13:3e:d7:4d:
                    06:52:51:2d:38:d1:9f:45:ad:52:b3:35:0d:85:3a:
                    97:5c:ce:2a:98:18:75:60:46:72:df:28:f5:98:ff:
                    c8:59:77:83:b8:8b:b4:fe:ac:70:ff:40:d3:e7:ff:
                    d6:bc:8a:77:ba:78:fe:21:f7:a6:2c:7f:32:06:1d:
                    c2:37:7b:f0:4f:59:f5:04:47:07:41:0b:1c:61:49:
                    fb:f8:65:db:90:d0:25:c7:0c:9e:c5:6f:e7:3e:15:
                    a4:00:cd:57:4f:58:17:2d:f2:3e:6b:e3:76:95:99:
                    86:d1:cd:47:77:ea:0e:72:33:93:53:70:77:39:03:
                    bb:a6:8b:a2:51:7d:b8:dd:5b:95:cb:9f:71:6a:65:
                    fb:bd:3d:37:f1:de:3f:f9:e4:c5:ec:fe:da:95:fe:
                    a7:6e:96:59:d5:41:15:7b:8a:c4:fd:af:c1:44:6b:
                    51:8b:c4:14:7a:38:db:2a:74:25:35:a2:6c:d1:2f:
                    9d:f6:3b:49:42:cd:39:27:30:4c:80:ec:2b:c1:2d:
                    75:11
                Exponent: 65537 (0x10001)
        X509v3 extensions:
            X509v3 Basic Constraints: 
                CA:FALSE
            Netscape Comment: 
                OpenSSL Generated Certificate
            X509v3 Subject Key Identifier: 
                84:BD:AE:76:8E:DF:9C:5F:C0:5A:23:F8:78:D6:27:7A:62:3B:F0:BE
            X509v3 Authority Key Identifier: 
                keyid:50:FE:6F:EA:33:78:A0:C2:76:74:4B:6B:CD:A0:80:DE:F4:4A:84:71

    Signature Algorithm: sha1WithRSAEncryption
        58:b6:27:ed:9e:53:35:35:1c:5b:cd:5f:37:00:eb:22:94:f6:
        66:c8:c9:b1:6c:7c:15:31:45:f6:7c:0e:3b:65:f6:91:a8:20:
        98:1c:28:df:97:a0:e2:02:ca:4c:f9:27:40:71:52:59:fd:6c:
        6e:7c:db:dd:25:6a:76:63:49:c0:6a:06:f5:24:aa:e6:b1:97:
        f7:3f:15:d5:4d:45:03:06:6e:ab:9c:cf:93:b0:d2:e0:46:21:
        6a:6c:4b:b3:f4:8c:1f:5e:43:03:3f:db:8d:d0:b4:5c:b0:69:
        41:85:b8:60:c9:55:96:82:88:69:5f:fb:7f:f7:96:66:fe:c1:
        6d:63:ab:a5:56:6b:40:15:a7:92:bd:7e:b0:11:a3:89:49:22:
        cc:b0:4e:53:c9:e1:0f:99:f8:e6:c5:75:56:0b:99:c2:ac:ee:
        09:68:be:b8:44:5a:1b:80:e3:62:82:f9:9c:71:4e:b9:34:ca:
        60:4b:16:45:a0:c1:ac:e2:76:8f:88:fd:57:f9:2d:5c:95:ed:
        e6:fd:33:58:f6:cb:f2:fd:80:7b:94:cb:ee:e0:8a:e9:b5:0e:
        55:65:18:03:15:c3:3f:b2:0d:5b:8c:68:f5:58:ee:6b:3c:2a:
        07:27:b9:bc:c7:04:22:a9:fa:c0:4c:60:ae:7f:53:93:a3:c0:
        5c:f9:2e:45
-----BEGIN CERTIFICATE-----
MIID3zCCAsegAwIBAgIBBDANBgkqhkiG9w0BAQUFADB0MQswCQYDVQQGEwJjbjEO
MAwGA1UECBMFYW5odWkxEDAOBgNVBAoTB2Jhbmdnb28xDjAMBgNVBAsTBWRldmVs
MREwDwYDVQQDEwhob3N0bDJjYTEgMB4GCSqGSIb3DQEJARYRanpwZW5nQGJhbmdn
b28uY24wHhcNMTMwODE0MjMyOTI0WhcNMjExMDMxMjMyOTI0WjB1MQswCQYDVQQG
EwJjbjEOMAwGA1UECBMFYW5odWkxEDAOBgNVBAoTB2Jhbmdnb28xDjAMBgNVBAsT
BWRldmVsMRIwEAYDVQQDEwlob3N0Y2FzZTIxIDAeBgkqhkiG9w0BCQEWEWp6cGVu
Z0BiYW5nZ29vLmNuMIIBIjANBgkqhkiG9w0BAQEFAAOCAQ8AMIIBCgKCAQEA5Yvi
rAMXCaSEFcHJg/1mvwgmLJyz3UCUiakth9sTCL269IPU/rLxKG246J0PkrY7fs3m
FcHiXxM+100GUlEtONGfRa1SszUNhTqXXM4qmBh1YEZy3yj1mP/IWXeDuIu0/qxw
/0DT5//WvIp3unj+IfemLH8yBh3CN3vwT1n1BEcHQQscYUn7+GXbkNAlxwyexW/n
PhWkAM1XT1gXLfI+a+N2lZmG0c1Hd+oOcjOTU3B3OQO7pouiUX243VuVy59xamX7
vT038d4/+eTF7P7alf6nbpZZ1UEVe4rE/a/BRGtRi8QUejjbKnQlNaJs0S+d9jtJ
Qs05JzBMgOwrwS11EQIDAQABo3sweTAJBgNVHRMEAjAAMCwGCWCGSAGG+EIBDQQf
Fh1PcGVuU1NMIEdlbmVyYXRlZCBDZXJ0aWZpY2F0ZTAdBgNVHQ4EFgQUhL2udo7f
nF/AWiP4eNYnemI78L4wHwYDVR0jBBgwFoAUUP5v6jN4oMJ2dEtrzaCA3vRKhHEw
DQYJKoZIhvcNAQEFBQADggEBAFi2J+2eUzU1HFvNXzcA6yKU9mbIybFsfBUxRfZ8
Djtl9pGoIJgcKN+XoOICykz5J0BxUln9bG58290lanZjScBqBvUkquaxl/c/FdVN
RQMGbqucz5Ow0uBGIWpsS7P0jB9eQwM/243QtFywaUGFuGDJVZaCiGlf+3/3lmb+
wW1jq6VWa0AVp5K9frARo4lJIsywTlPJ4Q+Z+ObFdVYLmcKs7glovrhEWhuA42KC
+ZxxTrk0ymBLFkWgwazido+I/Vf5LVyV7eb9M1j2y/L9gHuUy+7gium1DlVlGAMV
wz+yDVuMaPVY7ms8KgcnubzHBCKp+sBMYK5/U5OjwFz5LkU=
-----END CERTIFICATE-----
