Certificate:
    Data:
        Version: 3 (0x2)
        Serial Number: 7 (0x7)
        Signature Algorithm: sha1WithRSAEncryption
        Issuer: C=cn, ST=anhui, L=hefei, O=banggoo, OU=devel, CN=hostrootca/emailAddress=jzpeng@banggoo.cn
        Validity
            Not Before: Aug 16 20:00:35 2013 GMT
            Not After : Nov  2 20:00:35 2021 GMT
        Subject: C=cn, ST=anhui, O=banggoo, OU=devel, CN=hostrootcase5/emailAddress=jzpeng@banggoo.cn
        Subject Public Key Info:
            Public Key Algorithm: rsaEncryption
            RSA Public Key: (2048 bit)
                Modulus (2048 bit):
                    00:c4:51:8b:c2:e8:7e:55:79:e8:f7:03:30:29:05:
                    cd:da:db:4f:20:ea:07:78:f7:8a:87:63:f1:73:a3:
                    df:bc:df:ea:b8:7e:dc:c6:8c:9f:30:69:f9:b7:95:
                    8b:22:d9:b4:36:0a:b2:60:a8:b4:75:24:74:66:6f:
                    85:3a:ec:b9:d7:23:6a:7a:75:10:68:a6:74:9f:23:
                    75:3b:3d:81:9e:7b:7a:13:a7:88:8c:36:57:25:b4:
                    57:50:14:2d:15:76:29:b3:4f:27:df:c0:0c:df:42:
                    59:e3:07:9f:0c:d4:5a:34:ff:cf:d1:47:84:fa:90:
                    f6:1f:a0:32:7a:94:53:9d:d1:28:58:b5:87:c5:37:
                    ac:09:76:43:4d:97:fd:c4:d8:49:57:b2:a1:cd:cb:
                    dd:cd:63:ab:2e:9a:b7:d9:c8:f8:04:9f:34:43:3b:
                    ed:c5:74:c6:91:ad:77:02:3b:20:1e:a2:ae:f6:b4:
                    8e:a5:93:73:b4:8a:ab:42:7b:c7:8e:cc:f3:88:dd:
                    d9:94:26:6e:1c:87:75:8e:c6:52:6c:56:96:cf:23:
                    13:f8:56:a4:36:4f:f8:cb:d4:29:68:49:7f:45:22:
                    bd:3e:0d:26:fe:94:c9:2b:4a:47:03:4b:47:fa:35:
                    5d:4b:fc:e3:c5:30:c2:ae:78:7e:46:17:f0:83:15:
                    a9:ed
                Exponent: 65537 (0x10001)
        X509v3 extensions:
            X509v3 Basic Constraints: 
                CA:FALSE
            Netscape Comment: 
                OpenSSL Generated Certificate
            X509v3 Subject Key Identifier: 
                DF:CF:C0:A1:EE:BF:C6:03:6B:64:1D:BB:62:71:4B:1F:18:C7:E9:40
            X509v3 Authority Key Identifier: 
                keyid:4E:18:2F:BF:C6:76:0A:70:82:0E:25:CE:66:A4:41:C7:1C:87:A5:D6

    Signature Algorithm: sha1WithRSAEncryption
        84:d3:50:b0:06:91:d2:9f:9b:cf:b2:9f:55:d1:2a:c9:5e:50:
        cb:97:3e:e3:1a:aa:71:11:02:a1:59:a4:bf:11:17:33:e0:04:
        ad:0e:24:44:13:d9:32:69:99:df:bb:f0:ab:a2:c4:4d:c1:e3:
        1e:0b:e2:19:63:a5:58:6b:1a:c1:62:01:55:7b:16:06:ed:67:
        e6:74:ea:83:31:f7:50:af:f1:98:6a:6b:a2:a6:e4:4a:ba:51:
        3d:32:d2:d3:45:d8:83:15:4b:97:4c:ec:23:ac:08:f4:19:fb:
        16:77:32:f7:05:90:4b:26:a9:21:09:26:b8:3a:e0:b4:a4:a5:
        0e:8b:d5:eb:03:21:cb:70:43:1b:b4:7c:fc:2b:56:72:c1:ed:
        13:17:9c:94:58:6b:ec:17:40:fa:91:04:5b:d2:2c:ed:5c:94:
        70:c7:e4:81:d3:a7:b8:59:39:2e:b4:4e:c2:20:2a:f9:76:21:
        5c:ba:7d:86:d5:3b:7a:8b:9e:e8:8f:c3:bd:92:62:75:47:46:
        20:47:78:a1:09:fc:b8:fe:0a:97:b7:d7:02:07:40:3e:58:5a:
        b3:fe:28:a5:21:9b:e8:e4:d0:65:dd:f9:53:6d:4a:05:a1:17:
        f5:f5:83:af:46:cf:c5:68:5a:17:fd:de:05:2a:55:07:78:fd:
        15:c9:a6:04
-----BEGIN CERTIFICATE-----
MIID9jCCAt6gAwIBAgIBBzANBgkqhkiG9w0BAQUFADCBhjELMAkGA1UEBhMCY24x
DjAMBgNVBAgTBWFuaHVpMQ4wDAYDVQQHEwVoZWZlaTEQMA4GA1UEChMHYmFuZ2dv
bzEOMAwGA1UECxMFZGV2ZWwxEzARBgNVBAMTCmhvc3Ryb290Y2ExIDAeBgkqhkiG
9w0BCQEWEWp6cGVuZ0BiYW5nZ29vLmNuMB4XDTEzMDgxNjIwMDAzNVoXDTIxMTEw
MjIwMDAzNVoweTELMAkGA1UEBhMCY24xDjAMBgNVBAgTBWFuaHVpMRAwDgYDVQQK
EwdiYW5nZ29vMQ4wDAYDVQQLEwVkZXZlbDEWMBQGA1UEAxMNaG9zdHJvb3RjYXNl
NTEgMB4GCSqGSIb3DQEJARYRanpwZW5nQGJhbmdnb28uY24wggEiMA0GCSqGSIb3
DQEBAQUAA4IBDwAwggEKAoIBAQDEUYvC6H5Veej3AzApBc3a208g6gd494qHY/Fz
o9+83+q4ftzGjJ8wafm3lYsi2bQ2CrJgqLR1JHRmb4U67LnXI2p6dRBopnSfI3U7
PYGee3oTp4iMNlcltFdQFC0VdimzTyffwAzfQlnjB58M1Fo0/8/RR4T6kPYfoDJ6
lFOd0ShYtYfFN6wJdkNNl/3E2ElXsqHNy93NY6sumrfZyPgEnzRDO+3FdMaRrXcC
OyAeoq72tI6lk3O0iqtCe8eOzPOI3dmUJm4ch3WOxlJsVpbPIxP4VqQ2T/jL1Clo
SX9FIr0+DSb+lMkrSkcDS0f6NV1L/OPFMMKueH5GF/CDFantAgMBAAGjezB5MAkG
A1UdEwQCMAAwLAYJYIZIAYb4QgENBB8WHU9wZW5TU0wgR2VuZXJhdGVkIENlcnRp
ZmljYXRlMB0GA1UdDgQWBBTfz8Ch7r/GA2tkHbticUsfGMfpQDAfBgNVHSMEGDAW
gBROGC+/xnYKcIIOJc5mpEHHHIel1jANBgkqhkiG9w0BAQUFAAOCAQEAhNNQsAaR
0p+bz7KfVdEqyV5Qy5c+4xqqcRECoVmkvxEXM+AErQ4kRBPZMmmZ37vwq6LETcHj
HgviGWOlWGsawWIBVXsWBu1n5nTqgzH3UK/xmGproqbkSrpRPTLS00XYgxVLl0zs
I6wI9Bn7Fncy9wWQSyapIQkmuDrgtKSlDovV6wMhy3BDG7R8/CtWcsHtExeclFhr
7BdA+pEEW9Is7VyUcMfkgdOnuFk5LrROwiAq+XYhXLp9htU7eoue6I/DvZJidUdG
IEd4oQn8uP4Kl7fXAgdAPlhas/4opSGb6OTQZd35U21KBaEX9fWDr0bPxWhaF/3e
BSpVB3j9FcmmBA==
-----END CERTIFICATE-----
