Certificate:
    Data:
        Version: 3 (0x2)
        Serial Number: 8 (0x8)
        Signature Algorithm: sha1WithRSAEncryption
        Issuer: C=cn, ST=anhui, L=hefei, O=banggoo, OU=devel, CN=hostrootca/emailAddress=jzpeng@banggoo.cn
        Validity
            Not Before: Aug 16 20:32:54 2013 GMT
            Not After : Nov  2 20:32:54 2021 GMT
        Subject: C=cn, ST=anhui, O=banggoo, OU=devel, CN=hostrootcase6/emailAddress=jzpeng@banggoo.cn
        Subject Public Key Info:
            Public Key Algorithm: rsaEncryption
            RSA Public Key: (2048 bit)
                Modulus (2048 bit):
                    00:b5:ab:b7:8e:ab:87:4d:14:25:f9:76:2f:ae:76:
                    89:40:f4:cd:ef:77:06:16:d6:fa:5c:be:83:34:1e:
                    62:93:71:84:92:67:d5:3d:e7:4a:1f:ef:55:a2:67:
                    1c:b6:96:c8:1b:62:04:9d:b2:b6:d2:b2:0c:e9:ad:
                    5c:bc:5d:1c:14:9d:28:72:9c:a0:79:ec:f2:0d:a8:
                    1c:cb:33:07:aa:6f:61:d8:64:12:78:bf:48:79:84:
                    54:e8:67:3f:c9:75:77:3e:da:77:cc:93:0f:83:bd:
                    0f:83:e8:be:65:58:9e:5d:5e:47:52:f2:f5:93:23:
                    78:7c:9b:cb:da:42:96:79:36:43:7a:ee:1c:d0:89:
                    cc:6a:ce:65:7e:87:ab:cd:f8:76:84:3b:c0:65:b3:
                    5f:f4:23:d8:07:a7:78:08:af:fe:41:50:73:3a:da:
                    45:76:00:15:b1:88:5b:f9:36:ae:40:f0:05:c6:21:
                    8f:54:17:54:d7:98:36:44:da:4f:77:da:b0:ed:f8:
                    ff:03:57:d7:7e:ac:a8:96:fc:83:4e:dd:84:03:33:
                    b7:ce:ea:56:f6:77:41:96:ea:9d:5a:be:e3:23:2b:
                    d9:33:f7:9f:9e:93:b8:29:7f:cc:30:14:2c:15:70:
                    ac:d5:29:e9:e0:0e:25:d2:ed:fd:33:4d:4e:10:e5:
                    8c:15
                Exponent: 65537 (0x10001)
        X509v3 extensions:
            X509v3 Basic Constraints: 
                CA:FALSE
            Netscape Comment: 
                OpenSSL Generated Certificate
            X509v3 Subject Key Identifier: 
                E0:0D:A5:BB:8A:5D:1D:5F:86:4B:8D:85:DF:15:C1:C3:3A:E3:D8:1A
            X509v3 Authority Key Identifier: 
                keyid:4E:18:2F:BF:C6:76:0A:70:82:0E:25:CE:66:A4:41:C7:1C:87:A5:D6

    Signature Algorithm: sha1WithRSAEncryption
        38:a7:5a:00:41:cf:52:9f:c5:23:12:98:e6:29:74:53:76:8a:
        29:66:4b:41:dd:61:92:c9:57:6b:75:b9:97:37:f4:ab:85:7f:
        7f:83:ea:e2:9a:d1:00:80:d2:a5:b1:ba:20:e8:e8:b7:fa:80:
        86:3d:6d:e1:a4:dc:30:e2:2e:39:d4:f3:99:8f:d7:71:b4:83:
        50:71:f8:82:9b:74:3c:2b:d5:16:f7:75:ae:f2:18:a6:d9:72:
        29:a5:e0:e1:67:6c:8e:75:c0:e8:0e:87:99:a4:59:33:a1:66:
        08:fe:bb:2c:09:35:95:89:87:00:69:5e:b9:10:97:c4:ee:b0:
        fe:b2:e3:fb:7e:88:a6:e5:18:3f:0a:0d:75:fa:59:d3:e0:4a:
        30:ae:c7:d9:bd:08:9e:2d:00:40:3a:b3:20:ba:85:d9:35:86:
        09:0e:45:e5:9d:be:7d:8e:31:e5:85:9e:1d:20:c5:9c:da:fb:
        aa:a6:6c:ed:75:f2:2f:be:4a:2e:f9:57:0f:d9:8a:97:0c:e1:
        29:01:c2:65:29:de:08:8e:ed:76:fd:22:68:24:b3:16:db:54:
        40:df:88:52:2f:10:6f:cf:5b:52:34:90:e4:29:3d:97:a3:ac:
        e9:dd:ba:86:27:62:5c:ca:88:6c:cb:2f:d0:ad:bc:b9:af:c0:
        12:0b:06:bf
-----BEGIN CERTIFICATE-----
MIID9jCCAt6gAwIBAgIBCDANBgkqhkiG9w0BAQUFADCBhjELMAkGA1UEBhMCY24x
DjAMBgNVBAgTBWFuaHVpMQ4wDAYDVQQHEwVoZWZlaTEQMA4GA1UEChMHYmFuZ2dv
bzEOMAwGA1UECxMFZGV2ZWwxEzARBgNVBAMTCmhvc3Ryb290Y2ExIDAeBgkqhkiG
9w0BCQEWEWp6cGVuZ0BiYW5nZ29vLmNuMB4XDTEzMDgxNjIwMzI1NFoXDTIxMTEw
MjIwMzI1NFoweTELMAkGA1UEBhMCY24xDjAMBgNVBAgTBWFuaHVpMRAwDgYDVQQK
EwdiYW5nZ29vMQ4wDAYDVQQLEwVkZXZlbDEWMBQGA1UEAxMNaG9zdHJvb3RjYXNl
NjEgMB4GCSqGSIb3DQEJARYRanpwZW5nQGJhbmdnb28uY24wggEiMA0GCSqGSIb3
DQEBAQUAA4IBDwAwggEKAoIBAQC1q7eOq4dNFCX5di+udolA9M3vdwYW1vpcvoM0
HmKTcYSSZ9U950of71WiZxy2lsgbYgSdsrbSsgzprVy8XRwUnShynKB57PINqBzL
Mweqb2HYZBJ4v0h5hFToZz/JdXc+2nfMkw+DvQ+D6L5lWJ5dXkdS8vWTI3h8m8va
QpZ5NkN67hzQicxqzmV+h6vN+HaEO8Bls1/0I9gHp3gIr/5BUHM62kV2ABWxiFv5
Nq5A8AXGIY9UF1TXmDZE2k932rDt+P8DV9d+rKiW/INO3YQDM7fO6lb2d0GW6p1a
vuMjK9kz95+ek7gpf8wwFCwVcKzVKengDiXS7f0zTU4Q5YwVAgMBAAGjezB5MAkG
A1UdEwQCMAAwLAYJYIZIAYb4QgENBB8WHU9wZW5TU0wgR2VuZXJhdGVkIENlcnRp
ZmljYXRlMB0GA1UdDgQWBBTgDaW7il0dX4ZLjYXfFcHDOuPYGjAfBgNVHSMEGDAW
gBROGC+/xnYKcIIOJc5mpEHHHIel1jANBgkqhkiG9w0BAQUFAAOCAQEAOKdaAEHP
Up/FIxKY5il0U3aKKWZLQd1hkslXa3W5lzf0q4V/f4Pq4prRAIDSpbG6IOjot/qA
hj1t4aTcMOIuOdTzmY/XcbSDUHH4gpt0PCvVFvd1rvIYptlyKaXg4WdsjnXA6A6H
maRZM6FmCP67LAk1lYmHAGleuRCXxO6w/rLj+36IpuUYPwoNdfpZ0+BKMK7H2b0I
ni0AQDqzILqF2TWGCQ5F5Z2+fY4x5YWeHSDFnNr7qqZs7XXyL75KLvlXD9mKlwzh
KQHCZSneCI7tdv0iaCSzFttUQN+IUi8Qb89bUjSQ5Ck9l6Os6d26hidiXMqIbMsv
0K28ua/AEgsGvw==
-----END CERTIFICATE-----
