Certificate:
    Data:
        Version: 3 (0x2)
        Serial Number: 10 (0xa)
    Signature Algorithm: sha1WithRSAEncryption
        Issuer: C=cn, ST=anhui, L=hefei, O=banggoo, OU=devel, CN=hostrootca/emailAddress=jzpeng@banggoo.cn
        Validity
            Not Before: May 19 06:56:09 2016 GMT
            Not After : May 19 06:56:09 2017 GMT
        Subject: C=cn, ST=anhui, O=banggoo, OU=sha2, CN=banggoo.cn/emailAddress=banggoo@banggoo.cn
        Subject Public Key Info:
            Public Key Algorithm: rsaEncryption
                Public-Key: (1024 bit)
                Modulus:
                    00:c5:16:c6:35:db:8e:2c:72:69:51:e9:0a:50:36:
                    d6:4f:e0:1c:5b:3d:f7:24:a5:7b:bc:03:e0:b4:6f:
                    76:f9:f2:b5:72:97:67:c4:13:1a:26:a2:b6:4b:ab:
                    61:da:45:f5:18:e6:32:6f:3e:14:a4:19:eb:58:75:
                    b7:ce:92:03:d9:fc:49:72:14:2d:a8:76:80:24:5e:
                    3b:c5:26:20:0b:a8:81:4b:24:24:1d:e4:52:d3:0f:
                    17:52:14:af:3c:20:fd:c7:b2:7c:1a:56:42:e7:c2:
                    b1:f9:a1:08:95:c1:79:36:e7:1e:4f:af:c0:ec:93:
                    79:f5:72:65:44:e9:e1:3b:f3
                Exponent: 65537 (0x10001)
        X509v3 extensions:
            X509v3 Basic Constraints: 
                CA:FALSE
            Netscape Comment: 
                OpenSSL Generated Certificate
            X509v3 Subject Key Identifier: 
                E8:F3:3D:3B:1D:D7:26:61:59:A6:15:C5:10:4A:50:6E:B1:2D:74:5D
            X509v3 Authority Key Identifier: 
                keyid:4E:18:2F:BF:C6:76:0A:70:82:0E:25:CE:66:A4:41:C7:1C:87:A5:D6

    Signature Algorithm: sha1WithRSAEncryption
         87:09:e0:f6:92:a9:12:15:56:70:46:41:e9:79:87:e2:78:b4:
         77:23:95:ea:54:5a:8d:de:d9:74:86:b7:fa:99:95:8f:9d:46:
         5b:7d:b2:e6:e0:c3:0f:44:16:5f:08:f0:88:1e:50:d9:11:e4:
         96:a9:de:34:c4:b2:0c:1d:a0:6b:c4:97:0d:e4:d7:ee:e8:a7:
         39:7f:8a:78:7c:dc:24:80:f0:a5:2b:b8:2d:f5:e3:24:f9:33:
         67:72:bd:08:1b:f1:c9:e9:55:bd:7c:3c:b6:ae:99:46:49:65:
         bc:32:82:d3:33:b4:5c:d7:f2:d4:8b:64:ca:bc:74:0c:e5:77:
         b9:d2:81:c4:36:e1:66:5b:d5:46:ed:d6:67:d0:39:8c:b3:92:
         3e:3e:89:f9:73:67:5d:81:6c:74:eb:37:06:50:37:4c:12:68:
         3f:61:6b:38:82:a9:70:06:ae:9e:ae:1b:a1:53:19:9a:b9:0a:
         d3:1f:4c:27:01:25:86:be:b5:d4:ac:b0:35:4e:7a:21:aa:46:
         33:e3:7d:fd:76:3f:11:bf:3f:65:f6:a1:17:b2:13:b6:10:b8:
         3b:f9:1f:d2:7b:3c:d2:0a:32:f0:4d:03:3f:d0:62:dc:cd:a7:
         ac:61:03:a4:25:a9:68:c4:b0:d7:6f:d8:0b:e6:3f:e7:28:c4:
         74:62:d1:e8
-----BEGIN CERTIFICATE-----
MIIDbzCCAlegAwIBAgIBCjANBgkqhkiG9w0BAQUFADCBhjELMAkGA1UEBhMCY24x
DjAMBgNVBAgTBWFuaHVpMQ4wDAYDVQQHEwVoZWZlaTEQMA4GA1UEChMHYmFuZ2dv
bzEOMAwGA1UECxMFZGV2ZWwxEzARBgNVBAMTCmhvc3Ryb290Y2ExIDAeBgkqhkiG
9w0BCQEWEWp6cGVuZ0BiYW5nZ29vLmNuMB4XDTE2MDUxOTA2NTYwOVoXDTE3MDUx
OTA2NTYwOVowdjELMAkGA1UEBhMCY24xDjAMBgNVBAgMBWFuaHVpMRAwDgYDVQQK
DAdiYW5nZ29vMQ0wCwYDVQQLDARzaGEyMRMwEQYDVQQDDApiYW5nZ29vLmNuMSEw
HwYJKoZIhvcNAQkBFhJiYW5nZ29vQGJhbmdnb28uY24wgZ8wDQYJKoZIhvcNAQEB
BQADgY0AMIGJAoGBAMUWxjXbjixyaVHpClA21k/gHFs99ySle7wD4LRvdvnytXKX
Z8QTGiaitkurYdpF9RjmMm8+FKQZ61h1t86SA9n8SXIULah2gCReO8UmIAuogUsk
JB3kUtMPF1IUrzwg/ceyfBpWQufCsfmhCJXBeTbnHk+vwOyTefVyZUTp4TvzAgMB
AAGjezB5MAkGA1UdEwQCMAAwLAYJYIZIAYb4QgENBB8WHU9wZW5TU0wgR2VuZXJh
dGVkIENlcnRpZmljYXRlMB0GA1UdDgQWBBTo8z07HdcmYVmmFcUQSlBusS10XTAf
BgNVHSMEGDAWgBROGC+/xnYKcIIOJc5mpEHHHIel1jANBgkqhkiG9w0BAQUFAAOC
AQEAhwng9pKpEhVWcEZB6XmH4ni0dyOV6lRajd7ZdIa3+pmVj51GW32y5uDDD0QW
XwjwiB5Q2RHklqneNMSyDB2ga8SXDeTX7uinOX+KeHzcJIDwpSu4LfXjJPkzZ3K9
CBvxyelVvXw8tq6ZRkllvDKC0zO0XNfy1Itkyrx0DOV3udKBxDbhZlvVRu3WZ9A5
jLOSPj6J+XNnXYFsdOs3BlA3TBJoP2FrOIKpcAaunq4boVMZmrkK0x9MJwElhr61
1KywNU56IapGM+N9/XY/Eb8/ZfahF7ITthC4O/kf0ns80goy8E0DP9Bi3M2nrGED
pCWpaMSw12/YC+Y/5yjEdGLR6A==
-----END CERTIFICATE-----
